(dp0
S'opt_name'
p1
S'approx_standard_dipole_bssrdf_A_0.996483001172_0.98730606488_0.820895522388_s_0.290580785502_0.46286926265_1.13194856469.raw'
p2
sS'ref_name'
p3
S'rendering_disc_lights_potato_volume_pt_50000_samples.raw'
p4
s.